target datalayout = "e-m:e-p270:32:32-p271:32:32-p272:64:64-i64:64-i128:128-f80:128-n8:16:32:64-S128"
target triple = "x86_64-pc-linux-gnu"

; Function Attrs: inlinehint nounwind uwtable
define internal ptr @Abc_UtilStrsav(ptr noundef %0) #7 {
  %2 = alloca ptr, align 8
  store ptr %0, ptr %2, align 8, !tbaa !8
  %3 = load ptr, ptr %2, align 8, !tbaa !8
  %4 = icmp ne ptr %3, null
  br i1 %4, label %5, label %13

5:                                                ; preds = %1
  %6 = load ptr, ptr %2, align 8, !tbaa !8
  %7 = call i64 @strlen(ptr noundef %6) #10
  %8 = add i64 %7, 1
  %9 = mul i64 1, %8
  %10 = call noalias ptr @malloc(i64 noundef %9) #11
  %11 = load ptr, ptr %2, align 8, !tbaa !8
  %12 = call ptr @strcpy(ptr noundef %10, ptr noundef %11) #9
  br label %14

13:                                               ; preds = %1
  br label %14

14:                                               ; preds = %13, %5
  %15 = phi ptr [ %12, %5 ], [ null, %13 ]
  ret ptr %15
}

; Function Attrs: nounwind uwtable
define i32 @Map_LibraryCompareLibNames(ptr noundef %0, ptr noundef %1) #0 {
  %3 = alloca ptr, align 8
  %4 = alloca ptr, align 8
  %5 = alloca ptr, align 8
  %6 = alloca ptr, align 8
  %7 = alloca i32, align 4
  %8 = alloca i32, align 4
  store ptr %0, ptr %3, align 8, !tbaa !8
  store ptr %1, ptr %4, align 8, !tbaa !8
  call void @llvm.lifetime.start.p0(i64 8, ptr %5) #9
  %9 = load ptr, ptr %3, align 8, !tbaa !8
  %10 = call ptr @Abc_UtilStrsav(ptr noundef %9)
  store ptr %10, ptr %5, align 8, !tbaa !8
  call void @llvm.lifetime.start.p0(i64 8, ptr %6) #9
  %11 = load ptr, ptr %4, align 8, !tbaa !8
  %12 = call ptr @Abc_UtilStrsav(ptr noundef %11)
  store ptr %12, ptr %6, align 8, !tbaa !8
  call void @llvm.lifetime.start.p0(i64 4, ptr %7) #9
  call void @llvm.lifetime.start.p0(i64 4, ptr %8) #9
  store i32 0, ptr %7, align 4, !tbaa !10
  br label %13

13:                                               ; preds = %50, %2
  %14 = load ptr, ptr %5, align 8, !tbaa !8
  %15 = load i32, ptr %7, align 4, !tbaa !10
  %16 = sext i32 %15 to i64
  %17 = getelementptr inbounds i8, ptr %14, i64 %16
  %18 = load i8, ptr %17, align 1, !tbaa !26
  %19 = icmp ne i8 %18, 0
  br i1 %19, label %20, label %53

20:                                               ; preds = %13
  %21 = load ptr, ptr %5, align 8, !tbaa !8
  %22 = load i32, ptr %7, align 4, !tbaa !10
  %23 = sext i32 %22 to i64
  %24 = getelementptr inbounds i8, ptr %21, i64 %23
  %25 = load i8, ptr %24, align 1, !tbaa !26
  %26 = sext i8 %25 to i32
  %27 = icmp eq i32 %26, 62
  br i1 %27, label %44, label %28

28:                                               ; preds = %20
  %29 = load ptr, ptr %5, align 8, !tbaa !8
  %30 = load i32, ptr %7, align 4, !tbaa !10
  %31 = sext i32 %30 to i64
  %32 = getelementptr inbounds i8, ptr %29, i64 %31
  %33 = load i8, ptr %32, align 1, !tbaa !26
  %34 = sext i8 %33 to i32
  %35 = icmp eq i32 %34, 92
  br i1 %35, label %44, label %36

36:                                               ; preds = %28
  %37 = load ptr, ptr %5, align 8, !tbaa !8
  %38 = load i32, ptr %7, align 4, !tbaa !10
  %39 = sext i32 %38 to i64
  %40 = getelementptr inbounds i8, ptr %37, i64 %39
  %41 = load i8, ptr %40, align 1, !tbaa !26
  %42 = sext i8 %41 to i32
  %43 = icmp eq i32 %42, 47
  br i1 %43, label %44, label %49

44:                                               ; preds = %36, %28, %20
  %45 = load ptr, ptr %5, align 8, !tbaa !8
  %46 = load i32, ptr %7, align 4, !tbaa !10
  %47 = sext i32 %46 to i64
  %48 = getelementptr inbounds i8, ptr %45, i64 %47
  store i8 47, ptr %48, align 1, !tbaa !26
  br label %49

49:                                               ; preds = %44, %36
  br label %50

50:                                               ; preds = %49
  %51 = load i32, ptr %7, align 4, !tbaa !10
  %52 = add nsw i32 %51, 1
  store i32 %52, ptr %7, align 4, !tbaa !10
  br label %13, !llvm.loop !44

53:                                               ; preds = %13
  store i32 0, ptr %7, align 4, !tbaa !10
  br label %54

54:                                               ; preds = %91, %53
  %55 = load ptr, ptr %6, align 8, !tbaa !8
  %56 = load i32, ptr %7, align 4, !tbaa !10
  %57 = sext i32 %56 to i64
  %58 = getelementptr inbounds i8, ptr %55, i64 %57
  %59 = load i8, ptr %58, align 1, !tbaa !26
  %60 = icmp ne i8 %59, 0
  br i1 %60, label %61, label %94

61:                                               ; preds = %54
  %62 = load ptr, ptr %6, align 8, !tbaa !8
  %63 = load i32, ptr %7, align 4, !tbaa !10
  %64 = sext i32 %63 to i64
  %65 = getelementptr inbounds i8, ptr %62, i64 %64
  %66 = load i8, ptr %65, align 1, !tbaa !26
  %67 = sext i8 %66 to i32
  %68 = icmp eq i32 %67, 62
  br i1 %68, label %85, label %69

69:                                               ; preds = %61
  %70 = load ptr, ptr %6, align 8, !tbaa !8
  %71 = load i32, ptr %7, align 4, !tbaa !10
  %72 = sext i32 %71 to i64
  %73 = getelementptr inbounds i8, ptr %70, i64 %72
  %74 = load i8, ptr %73, align 1, !tbaa !26
  %75 = sext i8 %74 to i32
  %76 = icmp eq i32 %75, 92
  br i1 %76, label %85, label %77

77:                                               ; preds = %69
  %78 = load ptr, ptr %6, align 8, !tbaa !8
  %79 = load i32, ptr %7, align 4, !tbaa !10
  %80 = sext i32 %79 to i64
  %81 = getelementptr inbounds i8, ptr %78, i64 %80
  %82 = load i8, ptr %81, align 1, !tbaa !26
  %83 = sext i8 %82 to i32
  %84 = icmp eq i32 %83, 47
  br i1 %84, label %85, label %90

85:                                               ; preds = %77, %69, %61
  %86 = load ptr, ptr %6, align 8, !tbaa !8
  %87 = load i32, ptr %7, align 4, !tbaa !10
  %88 = sext i32 %87 to i64
  %89 = getelementptr inbounds i8, ptr %86, i64 %88
  store i8 47, ptr %89, align 1, !tbaa !26
  br label %90

90:                                               ; preds = %85, %77
  br label %91

91:                                               ; preds = %90
  %92 = load i32, ptr %7, align 4, !tbaa !10
  %93 = add nsw i32 %92, 1
  store i32 %93, ptr %7, align 4, !tbaa !10
  br label %54, !llvm.loop !45

94:                                               ; preds = %54
  %95 = load ptr, ptr %5, align 8, !tbaa !8
  %96 = load ptr, ptr %6, align 8, !tbaa !8
  %97 = call i32 @strcmp(ptr noundef %95, ptr noundef %96) #10
  store i32 %97, ptr %8, align 4, !tbaa !10
  %98 = load ptr, ptr %5, align 8, !tbaa !8
  %99 = icmp ne ptr %98, null
  br i1 %99, label %100, label %102

100:                                              ; preds = %94
  %101 = load ptr, ptr %5, align 8, !tbaa !8
  call void @free(ptr noundef %101) #9
  store ptr null, ptr %5, align 8, !tbaa !8
  br label %103

102:                                              ; preds = %94
  br label %103

103:                                              ; preds = %102, %100
  %104 = load ptr, ptr %6, align 8, !tbaa !8
  %105 = icmp ne ptr %104, null
  br i1 %105, label %106, label %108

106:                                              ; preds = %103
  %107 = load ptr, ptr %6, align 8, !tbaa !8
  call void @free(ptr noundef %107) #9
  store ptr null, ptr %6, align 8, !tbaa !8
  br label %109

108:                                              ; preds = %103
  br label %109

109:                                              ; preds = %108, %106
  %110 = load i32, ptr %8, align 4, !tbaa !10
  call void @llvm.lifetime.end.p0(i64 4, ptr %8) #9
  call void @llvm.lifetime.end.p0(i64 4, ptr %7) #9
  call void @llvm.lifetime.end.p0(i64 8, ptr %6) #9
  call void @llvm.lifetime.end.p0(i64 8, ptr %5) #9
  ret i32 %110
}