; Function Attrs: nounwind uwtable
define i32 @Map_LibraryCompareLibNames(ptr noundef readonly %0, ptr noundef readonly %1) local_unnamed_addr #0 {
  %.not.i = icmp eq ptr %0, null
  br i1 %.not.i, label %Abc_UtilStrsav.exit, label %3

3:                                                ; preds = %2
  %4 = tail call i64 @strlen(ptr noundef nonnull readonly dereferenceable(1) %0) #17
  %5 = add i64 %4, 1
  %6 = tail call noalias ptr @malloc(i64 noundef %5) #18
  %7 = tail call ptr @strcpy(ptr noundef nonnull dereferenceable(1) %6, ptr noundef nonnull readonly dereferenceable(1) %0) #16
  br label %Abc_UtilStrsav.exit

Abc_UtilStrsav.exit:                              ; preds = %2, %3
  %8 = phi ptr [ %6, %3 ], [ null, %2 ]
  %.not.i37 = icmp eq ptr %1, null
  br i1 %.not.i37, label %Abc_UtilStrsav.exit38, label %9

9:                                                ; preds = %Abc_UtilStrsav.exit
  %10 = tail call i64 @strlen(ptr noundef nonnull readonly dereferenceable(1) %1) #17
  %11 = add i64 %10, 1
  %12 = tail call noalias ptr @malloc(i64 noundef %11) #18
  %13 = tail call ptr @strcpy(ptr noundef nonnull dereferenceable(1) %12, ptr noundef nonnull readonly dereferenceable(1) %1) #16
  br label %Abc_UtilStrsav.exit38

Abc_UtilStrsav.exit38:                            ; preds = %Abc_UtilStrsav.exit, %9
  %14 = phi ptr [ %12, %9 ], [ null, %Abc_UtilStrsav.exit ]
  br label %15

15:                                               ; preds = %19, %Abc_UtilStrsav.exit38
  %indvars.iv = phi i64 [ %indvars.iv.next, %19 ], [ 0, %Abc_UtilStrsav.exit38 ]
  %16 = getelementptr inbounds nuw i8, ptr %8, i64 %indvars.iv
  %17 = load i8, ptr %16, align 1, !tbaa !21
  switch i8 %17, label %19 [
    i8 0, label %.preheader
    i8 62, label %18
    i8 92, label %18
    i8 47, label %18
  ]

18:                                               ; preds = %15, %15, %15
  store i8 47, ptr %16, align 1, !tbaa !21
  br label %19

19:                                               ; preds = %15, %18
  %indvars.iv.next = add nuw nsw i64 %indvars.iv, 1
  br label %15, !llvm.loop !37

.preheader:                                       ; preds = %15, %23
  %indvars.iv40 = phi i64 [ %indvars.iv.next41, %23 ], [ 0, %15 ]
  %20 = getelementptr inbounds nuw i8, ptr %14, i64 %indvars.iv40
  %21 = load i8, ptr %20, align 1, !tbaa !21
  switch i8 %21, label %23 [
    i8 0, label %24
    i8 62, label %22
    i8 92, label %22
    i8 47, label %22
  ]

22:                                               ; preds = %.preheader, %.preheader, %.preheader
  store i8 47, ptr %20, align 1, !tbaa !21
  br label %23

23:                                               ; preds = %.preheader, %22
  %indvars.iv.next41 = add nuw nsw i64 %indvars.iv40, 1
  br label %.preheader, !llvm.loop !38

24:                                               ; preds = %.preheader
  %25 = tail call i32 @strcmp(ptr noundef nonnull dereferenceable(1) %8, ptr noundef nonnull dereferenceable(1) %14) #17
  tail call void @free(ptr noundef %8) #16
  tail call void @free(ptr noundef nonnull %14) #16
  ret i32 %25
}